; Function Attrs: mustprogress uwtable
define hidden void @_ZN4lean13mk_definitionERKNS_11environmentERKNS_4nameERKNS_8list_refIS3_EERKNS_4exprESC_NS_17definition_safetyE(ptr dead_on_unwind noalias writable writeonly sret(%"class.lean::declaration") align 8 captures(none) %0, ptr noundef nonnull align 8 dereferenceable(8) %1, ptr noundef nonnull readonly align 8 captures(none) dereferenceable(8) %2, ptr noundef nonnull readonly align 8 captures(none) dereferenceable(8) %3, ptr noundef nonnull readonly align 8 captures(none) dereferenceable(8) %4, ptr noundef nonnull align 8 dereferenceable(8) %5, i32 noundef %6) local_unnamed_addr #0 personality ptr @__gxx_personality_v0 {
  %8 = alloca %"class.lean::definition_val", align 8
  call void @llvm.lifetime.start.p0(i64 8, ptr nonnull %8) #16
  call void @_ZN4lean17mk_definition_valERKNS_11environmentERKNS_4nameERKNS_8list_refIS3_EERKNS_4exprESC_NS_17definition_safetyE(ptr dead_on_unwind nonnull writable sret(%"class.lean::definition_val") align 8 %8, ptr noundef nonnull align 8 dereferenceable(8) %1, ptr noundef nonnull align 8 dereferenceable(8) %2, ptr noundef nonnull align 8 dereferenceable(8) %3, ptr noundef nonnull align 8 dereferenceable(8) %4, ptr noundef nonnull align 8 dereferenceable(8) %5, i32 noundef %6)
  invoke void @lean_inc_heartbeat()
          to label %.noexc unwind label %36

.noexc:                                           ; preds = %7
  %9 = tail call noalias ptr @mi_malloc_small(i64 noundef 16) #16, !noalias !55
  %10 = icmp eq ptr %9, null
  br i1 %10, label %11, label %_ZL23lean_alloc_small_objectj.exit.i.i.i.i

11:                                               ; preds = %.noexc
  invoke void @lean_internal_panic_out_of_memory() #17
          to label %.noexc9 unwind label %36

.noexc9:                                          ; preds = %11
  unreachable

_ZL23lean_alloc_small_objectj.exit.i.i.i.i:       ; preds = %.noexc
  %12 = getelementptr inbounds nuw i8, ptr %9, i64 4
  store i32 1, ptr %9, align 4, !tbaa !8, !noalias !55
  store i32 16842768, ptr %12, align 4, !noalias !55
  %13 = load ptr, ptr %8, align 8, !tbaa !3, !noalias !55
  %14 = ptrtoint ptr %13 to i64
  %15 = and i64 %14, 1
  %.not.i.i.i = icmp eq i64 %15, 0
  br i1 %.not.i.i.i, label %16, label %.noexc10

16:                                               ; preds = %_ZL23lean_alloc_small_objectj.exit.i.i.i.i
  %.val.i.i.i.i = load i32, ptr %13, align 4, !tbaa !8, !noalias !55
  %17 = icmp sgt i32 %.val.i.i.i.i, 0
  br i1 %17, label %18, label %20, !prof !11

18:                                               ; preds = %16
  %19 = add nuw nsw i32 %.val.i.i.i.i, 1
  store i32 %19, ptr %13, align 4, !tbaa !8, !noalias !55
  br label %.noexc10

20:                                               ; preds = %16
  %.not.i.i.i.i = icmp eq i32 %.val.i.i.i.i, 0
  br i1 %.not.i.i.i.i, label %.noexc10, label %21

21:                                               ; preds = %20
  invoke void @lean_inc_ref_cold(ptr noundef nonnull %13)
          to label %.noexc10 unwind label %36

.noexc10:                                         ; preds = %21, %20, %18, %_ZL23lean_alloc_small_objectj.exit.i.i.i.i
  %22 = getelementptr inbounds nuw i8, ptr %9, i64 8
  store ptr %13, ptr %22, align 8, !tbaa !22, !noalias !55
  store ptr %9, ptr %0, align 8, !tbaa !3
  %23 = ptrtoint ptr %9 to i64
  %24 = and i64 %23, 1
  %.not.i.i.i11 = icmp eq i64 %24, 0
  br i1 %.not.i.i.i11, label %25, label %_ZN4lean10object_refD2Ev.exit

25:                                               ; preds = %.noexc10
  store i32 1, ptr %9, align 4, !tbaa !8
  br label %_ZN4lean10object_refD2Ev.exit

_ZN4lean10object_refD2Ev.exit:                    ; preds = %.noexc10, %25
  br i1 %.not.i.i.i, label %26, label %_ZN4lean10object_refD2Ev.exit18

26:                                               ; preds = %_ZN4lean10object_refD2Ev.exit
  %27 = load i32, ptr %13, align 4, !tbaa !8
  %28 = icmp sgt i32 %27, 1
  br i1 %28, label %29, label %31, !prof !11

29:                                               ; preds = %26
  %30 = add nsw i32 %27, -1
  store i32 %30, ptr %13, align 4, !tbaa !8
  br label %_ZN4lean10object_refD2Ev.exit18

31:                                               ; preds = %26
  %.not.i.i.i17 = icmp eq i32 %27, 0
  br i1 %.not.i.i.i17, label %_ZN4lean10object_refD2Ev.exit18, label %32

32:                                               ; preds = %31
  invoke void @lean_dec_ref_cold(ptr noundef nonnull %13)
          to label %_ZN4lean10object_refD2Ev.exit18 unwind label %33

33:                                               ; preds = %32
  %34 = landingpad { ptr, i32 }
          catch ptr null
  %35 = extractvalue { ptr, i32 } %34, 0
  tail call void @__clang_call_terminate(ptr %35) #18
  unreachable

_ZN4lean10object_refD2Ev.exit18:                  ; preds = %_ZN4lean10object_refD2Ev.exit, %29, %31, %32
  call void @llvm.lifetime.end.p0(i64 8, ptr nonnull %8) #16
  ret void

36:                                               ; preds = %7, %11, %21
  %37 = landingpad { ptr, i32 }
          cleanup
  call void @_ZN4lean10object_refD2Ev(ptr noundef nonnull align 8 dereferenceable(8) %8) #16
  call void @llvm.lifetime.end.p0(i64 8, ptr nonnull %8) #16
  resume { ptr, i32 } %37
}